target datalayout = "e-m:e-p270:32:32-p271:32:32-p272:64:64-i64:64-i128:128-f80:128-n8:16:32:64-S128"
target triple = "x86_64-unknown-linux-gnu"

%"class.boost::detail::shared_count" = type { ptr }
%"class.QuantLib::Handle" = type { %"class.boost::shared_ptr.18" }
%"class.boost::shared_ptr.18" = type { ptr, %"class.boost::detail::shared_count" }
%"class.QuantLib::RelinkableHandle" = type { %"class.QuantLib::Handle" }

; Function Attrs: mustprogress uwtable
define void @_ZN8QuantLib17FuturesRateHelperC2EdRKNS_4DateERKN5boost10shared_ptrINS_9IborIndexEEEdNS_7Futures4TypeE(ptr noundef nonnull align 8 dereferenceable(200) %this, double noundef %price, ptr noundef nonnull align 8 dereferenceable(8) %iborStartDate, ptr noundef nonnull align 8 dereferenceable(16) %index, double noundef %convAdj, i32 noundef %type) unnamed_addr #2 align 2 personality ptr @__gxx_personality_v0 {
entry:
  %this.addr = alloca ptr, align 8
  %price.addr = alloca double, align 8
  %iborStartDate.addr = alloca ptr, align 8
  %index.addr = alloca ptr, align 8
  %convAdj.addr = alloca double, align 8
  %type.addr = alloca i32, align 4
  %ref.tmp = alloca %"class.QuantLib::RelinkableHandle", align 8
  %ref.tmp2 = alloca %"class.QuantLib::RelinkableHandle", align 8
  %exn.slot = alloca ptr, align 8
  %ehselector.slot = alloca i32, align 4
  store ptr %this, ptr %this.addr, align 8, !tbaa !3
  store double %price, ptr %price.addr, align 8, !tbaa !55
  store ptr %iborStartDate, ptr %iborStartDate.addr, align 8, !tbaa !3
  store ptr %index, ptr %index.addr, align 8, !tbaa !3
  store double %convAdj, ptr %convAdj.addr, align 8, !tbaa !55
  store i32 %type, ptr %type.addr, align 4, !tbaa !24
  %this1 = load ptr, ptr %this.addr, align 8
  call void @llvm.lifetime.start.p0(i64 16, ptr %ref.tmp) #17
  %0 = load double, ptr %price.addr, align 8, !tbaa !55
  call void @_ZN8QuantLib15makeQuoteHandleEd(ptr dead_on_unwind writable sret(%"class.QuantLib::RelinkableHandle") align 8 %ref.tmp, double noundef %0)
  %1 = load ptr, ptr %iborStartDate.addr, align 8, !tbaa !3
  %2 = load ptr, ptr %index.addr, align 8, !tbaa !3
  call void @llvm.lifetime.start.p0(i64 16, ptr %ref.tmp2) #17
  %3 = load double, ptr %convAdj.addr, align 8, !tbaa !55
  invoke void @_ZN8QuantLib15makeQuoteHandleEd(ptr dead_on_unwind writable sret(%"class.QuantLib::RelinkableHandle") align 8 %ref.tmp2, double noundef %3)
          to label %invoke.cont unwind label %lpad

invoke.cont:                                      ; preds = %entry
  %4 = load i32, ptr %type.addr, align 4, !tbaa !24
  invoke void @_ZN8QuantLib17FuturesRateHelperC2ERKNS_6HandleINS_5QuoteEEERKNS_4DateERKN5boost10shared_ptrINS_9IborIndexEEES5_NS_7Futures4TypeE(ptr noundef nonnull align 8 dereferenceable(200) %this1, ptr noundef nonnull align 8 dereferenceable(16) %ref.tmp, ptr noundef nonnull align 8 dereferenceable(8) %1, ptr noundef nonnull align 8 dereferenceable(16) %2, ptr noundef nonnull align 8 dereferenceable(16) %ref.tmp2, i32 noundef %4)
          to label %invoke.cont4 unwind label %lpad3

invoke.cont4:                                     ; preds = %invoke.cont
  call void @_ZN8QuantLib6HandleINS_5QuoteEED2Ev(ptr noundef nonnull align 8 dereferenceable(16) %ref.tmp2) #17
  call void @llvm.lifetime.end.p0(i64 16, ptr %ref.tmp2) #17
  call void @_ZN8QuantLib6HandleINS_5QuoteEED2Ev(ptr noundef nonnull align 8 dereferenceable(16) %ref.tmp) #17
  call void @llvm.lifetime.end.p0(i64 16, ptr %ref.tmp) #17
  ret void

lpad:                                             ; preds = %entry
  %5 = landingpad { ptr, i32 }
          cleanup
  %6 = extractvalue { ptr, i32 } %5, 0
  store ptr %6, ptr %exn.slot, align 8
  %7 = extractvalue { ptr, i32 } %5, 1
  store i32 %7, ptr %ehselector.slot, align 4
  br label %ehcleanup

lpad3:                                            ; preds = %invoke.cont
  %8 = landingpad { ptr, i32 }
          cleanup
  %9 = extractvalue { ptr, i32 } %8, 0
  store ptr %9, ptr %exn.slot, align 8
  %10 = extractvalue { ptr, i32 } %8, 1
  store i32 %10, ptr %ehselector.slot, align 4
  call void @_ZN8QuantLib6HandleINS_5QuoteEED2Ev(ptr noundef nonnull align 8 dereferenceable(16) %ref.tmp2) #17
  br label %ehcleanup

ehcleanup:                                        ; preds = %lpad3, %lpad
  call void @llvm.lifetime.end.p0(i64 16, ptr %ref.tmp2) #17
  call void @_ZN8QuantLib6HandleINS_5QuoteEED2Ev(ptr noundef nonnull align 8 dereferenceable(16) %ref.tmp) #17
  call void @llvm.lifetime.end.p0(i64 16, ptr %ref.tmp) #17
  br label %eh.resume

eh.resume:                                        ; preds = %ehcleanup
  %exn = load ptr, ptr %exn.slot, align 8
  %sel = load i32, ptr %ehselector.slot, align 4
  %lpad.val = insertvalue { ptr, i32 } poison, ptr %exn, 0
  %lpad.val7 = insertvalue { ptr, i32 } %lpad.val, i32 %sel, 1
  resume { ptr, i32 } %lpad.val7
}