; Function Attrs: mustprogress uwtable
define void @_ZN8QuantLib17FuturesRateHelperC2EdRKNS_4DateERKN5boost10shared_ptrINS_9IborIndexEEEdNS_7Futures4TypeE(ptr noundef nonnull align 8 dereferenceable(200) %this, double noundef %price, ptr noundef nonnull align 8 dereferenceable(8) %iborStartDate, ptr nocapture noundef nonnull readonly align 8 dereferenceable(16) %index, double noundef %convAdj, i32 noundef %type) unnamed_addr #7 align 2 personality ptr @__gxx_personality_v0 {
entry:
  %ref.tmp = alloca %"class.QuantLib::RelinkableHandle", align 8
  %ref.tmp2 = alloca %"class.QuantLib::RelinkableHandle", align 8
  call void @llvm.lifetime.start.p0(i64 16, ptr nonnull %ref.tmp) #26
  call void @_ZN8QuantLib15makeQuoteHandleEd(ptr dead_on_unwind nonnull writable sret(%"class.QuantLib::RelinkableHandle") align 8 %ref.tmp, double noundef %price)
  call void @llvm.lifetime.start.p0(i64 16, ptr nonnull %ref.tmp2) #26
  invoke void @_ZN8QuantLib15makeQuoteHandleEd(ptr dead_on_unwind nonnull writable sret(%"class.QuantLib::RelinkableHandle") align 8 %ref.tmp2, double noundef %convAdj)
          to label %invoke.cont unwind label %lpad

invoke.cont:                                      ; preds = %entry
  invoke void @_ZN8QuantLib17FuturesRateHelperC2ERKNS_6HandleINS_5QuoteEEERKNS_4DateERKN5boost10shared_ptrINS_9IborIndexEEES5_NS_7Futures4TypeE(ptr noundef nonnull align 8 dereferenceable(200) %this, ptr noundef nonnull align 8 dereferenceable(16) %ref.tmp, ptr noundef nonnull align 8 dereferenceable(8) %iborStartDate, ptr noundef nonnull align 8 dereferenceable(16) %index, ptr noundef nonnull align 8 dereferenceable(16) %ref.tmp2, i32 noundef %type)
          to label %invoke.cont4 unwind label %lpad3

invoke.cont4:                                     ; preds = %invoke.cont
  %pn.i.i = getelementptr inbounds nuw i8, ptr %ref.tmp2, i64 8
  %0 = load ptr, ptr %pn.i.i, align 8, !tbaa !37
  %cmp.not.i.i.i = icmp eq ptr %0, null
  br i1 %cmp.not.i.i.i, label %_ZN8QuantLib6HandleINS_5QuoteEED2Ev.exit, label %if.then.i.i.i

if.then.i.i.i:                                    ; preds = %invoke.cont4
  %use_count_.i.i.i.i = getelementptr inbounds nuw i8, ptr %0, i64 8
  %1 = atomicrmw sub ptr %use_count_.i.i.i.i, i32 1 acq_rel, align 4
  %cmp.i.i.i.i = icmp eq i32 %1, 1
  br i1 %cmp.i.i.i.i, label %if.then.i.i.i.i, label %_ZN8QuantLib6HandleINS_5QuoteEED2Ev.exit

if.then.i.i.i.i:                                  ; preds = %if.then.i.i.i
  %vtable.i.i.i.i = load ptr, ptr %0, align 8, !tbaa !35
  %vfn.i.i.i.i = getelementptr inbounds i8, ptr %vtable.i.i.i.i, i64 16
  %2 = load ptr, ptr %vfn.i.i.i.i, align 8
  invoke void %2(ptr noundef nonnull align 8 dereferenceable(16) %0)
          to label %.noexc.i.i.i unwind label %terminate.lpad.i.i.i

.noexc.i.i.i:                                     ; preds = %if.then.i.i.i.i
  %weak_count_.i.i.i.i.i = getelementptr inbounds nuw i8, ptr %0, i64 12
  %3 = atomicrmw sub ptr %weak_count_.i.i.i.i.i, i32 1 acq_rel, align 4
  %cmp.i.i.i.i.i = icmp eq i32 %3, 1
  br i1 %cmp.i.i.i.i.i, label %if.then.i.i.i.i.i, label %_ZN8QuantLib6HandleINS_5QuoteEED2Ev.exit

if.then.i.i.i.i.i:                                ; preds = %.noexc.i.i.i
  %vtable.i.i.i.i.i = load ptr, ptr %0, align 8, !tbaa !35
  %vfn.i.i.i.i.i = getelementptr inbounds i8, ptr %vtable.i.i.i.i.i, i64 24
  %4 = load ptr, ptr %vfn.i.i.i.i.i, align 8
  invoke void %4(ptr noundef nonnull align 8 dereferenceable(16) %0)
          to label %_ZN8QuantLib6HandleINS_5QuoteEED2Ev.exit unwind label %terminate.lpad.i.i.i

terminate.lpad.i.i.i:                             ; preds = %if.then.i.i.i.i.i, %if.then.i.i.i.i
  %5 = landingpad { ptr, i32 }
          catch ptr null
  %6 = extractvalue { ptr, i32 } %5, 0
  call void @__clang_call_terminate(ptr %6) #27
  unreachable

_ZN8QuantLib6HandleINS_5QuoteEED2Ev.exit:         ; preds = %invoke.cont4, %if.then.i.i.i, %.noexc.i.i.i, %if.then.i.i.i.i.i
  call void @llvm.lifetime.end.p0(i64 16, ptr nonnull %ref.tmp2) #26
  %pn.i.i2 = getelementptr inbounds nuw i8, ptr %ref.tmp, i64 8
  %7 = load ptr, ptr %pn.i.i2, align 8, !tbaa !37
  %cmp.not.i.i.i3 = icmp eq ptr %7, null
  br i1 %cmp.not.i.i.i3, label %_ZN8QuantLib6HandleINS_5QuoteEED2Ev.exit17, label %if.then.i.i.i4

if.then.i.i.i4:                                   ; preds = %_ZN8QuantLib6HandleINS_5QuoteEED2Ev.exit
  %use_count_.i.i.i.i5 = getelementptr inbounds nuw i8, ptr %7, i64 8
  %8 = atomicrmw sub ptr %use_count_.i.i.i.i5, i32 1 acq_rel, align 4
  %cmp.i.i.i.i6 = icmp eq i32 %8, 1
  br i1 %cmp.i.i.i.i6, label %if.then.i.i.i.i7, label %_ZN8QuantLib6HandleINS_5QuoteEED2Ev.exit17

if.then.i.i.i.i7:                                 ; preds = %if.then.i.i.i4
  %vtable.i.i.i.i8 = load ptr, ptr %7, align 8, !tbaa !35
  %vfn.i.i.i.i9 = getelementptr inbounds i8, ptr %vtable.i.i.i.i8, i64 16
  %9 = load ptr, ptr %vfn.i.i.i.i9, align 8
  invoke void %9(ptr noundef nonnull align 8 dereferenceable(16) %7)
          to label %.noexc.i.i.i11 unwind label %terminate.lpad.i.i.i10

.noexc.i.i.i11:                                   ; preds = %if.then.i.i.i.i7
  %weak_count_.i.i.i.i.i12 = getelementptr inbounds nuw i8, ptr %7, i64 12
  %10 = atomicrmw sub ptr %weak_count_.i.i.i.i.i12, i32 1 acq_rel, align 4
  %cmp.i.i.i.i.i13 = icmp eq i32 %10, 1
  br i1 %cmp.i.i.i.i.i13, label %if.then.i.i.i.i.i14, label %_ZN8QuantLib6HandleINS_5QuoteEED2Ev.exit17

if.then.i.i.i.i.i14:                              ; preds = %.noexc.i.i.i11
  %vtable.i.i.i.i.i15 = load ptr, ptr %7, align 8, !tbaa !35
  %vfn.i.i.i.i.i16 = getelementptr inbounds i8, ptr %vtable.i.i.i.i.i15, i64 24
  %11 = load ptr, ptr %vfn.i.i.i.i.i16, align 8
  invoke void %11(ptr noundef nonnull align 8 dereferenceable(16) %7)
          to label %_ZN8QuantLib6HandleINS_5QuoteEED2Ev.exit17 unwind label %terminate.lpad.i.i.i10

terminate.lpad.i.i.i10:                           ; preds = %if.then.i.i.i.i.i14, %if.then.i.i.i.i7
  %12 = landingpad { ptr, i32 }
          catch ptr null
  %13 = extractvalue { ptr, i32 } %12, 0
  call void @__clang_call_terminate(ptr %13) #27
  unreachable

_ZN8QuantLib6HandleINS_5QuoteEED2Ev.exit17:       ; preds = %_ZN8QuantLib6HandleINS_5QuoteEED2Ev.exit, %if.then.i.i.i4, %.noexc.i.i.i11, %if.then.i.i.i.i.i14
  call void @llvm.lifetime.end.p0(i64 16, ptr nonnull %ref.tmp) #26
  ret void

lpad:                                             ; preds = %entry
  %14 = landingpad { ptr, i32 }
          cleanup
  br label %ehcleanup

lpad3:                                            ; preds = %invoke.cont
  %15 = landingpad { ptr, i32 }
          cleanup
  call void @_ZN8QuantLib6HandleINS_5QuoteEED2Ev(ptr noundef nonnull align 8 dereferenceable(16) %ref.tmp2) #26
  br label %ehcleanup

ehcleanup:                                        ; preds = %lpad3, %lpad
  %.pn = phi { ptr, i32 } [ %15, %lpad3 ], [ %14, %lpad ]
  call void @llvm.lifetime.end.p0(i64 16, ptr nonnull %ref.tmp2) #26
  call void @_ZN8QuantLib6HandleINS_5QuoteEED2Ev(ptr noundef nonnull align 8 dereferenceable(16) %ref.tmp) #26
  call void @llvm.lifetime.end.p0(i64 16, ptr nonnull %ref.tmp) #26
  resume { ptr, i32 } %.pn
}